target datalayout = "e-m:e-p270:32:32-p271:32:32-p272:64:64-i64:64-i128:128-f80:128-n8:16:32:64-S128"
target triple = "x86_64-pc-linux-gnu"

%struct.SUNHashMap_ = type { i32, i32, ptr }

; Function Attrs: nounwind uwtable
define i32 @SUNHashMap_Iterate(ptr noundef %0, i32 noundef %1, ptr noundef %2, ptr noundef %3) #0 {
  %5 = alloca i32, align 4
  %6 = alloca ptr, align 8
  %7 = alloca i32, align 4
  %8 = alloca ptr, align 8
  %9 = alloca ptr, align 8
  %10 = alloca i32, align 4
  %11 = alloca i32, align 4
  %12 = alloca i32, align 4
  store ptr %0, ptr %6, align 8, !tbaa !10
  store i32 %1, ptr %7, align 4, !tbaa !3
  store ptr %2, ptr %8, align 8, !tbaa !19
  store ptr %3, ptr %9, align 8, !tbaa !19
  call void @llvm.lifetime.start.p0(i64 4, ptr %10) #6
  %13 = load ptr, ptr %6, align 8, !tbaa !10
  %14 = icmp eq ptr %13, null
  br i1 %14, label %18, label %15

15:                                               ; preds = %4
  %16 = load ptr, ptr %8, align 8, !tbaa !19
  %17 = icmp eq ptr %16, null
  br i1 %17, label %18, label %19

18:                                               ; preds = %15, %4
  store i32 -2, ptr %5, align 4
  store i32 1, ptr %11, align 4
  br label %59

19:                                               ; preds = %15
  %20 = load i32, ptr %7, align 4, !tbaa !3
  store i32 %20, ptr %10, align 4, !tbaa !3
  br label %21

21:                                               ; preds = %52, %19
  %22 = load i32, ptr %10, align 4, !tbaa !3
  %23 = load ptr, ptr %6, align 8, !tbaa !10
  %24 = getelementptr inbounds nuw %struct.SUNHashMap_, ptr %23, i32 0, i32 1
  %25 = load i32, ptr %24, align 4, !tbaa !15
  %26 = icmp slt i32 %22, %25
  br i1 %26, label %27, label %55

27:                                               ; preds = %21
  call void @llvm.lifetime.start.p0(i64 4, ptr %12) #6
  %28 = load ptr, ptr %8, align 8, !tbaa !19
  %29 = load i32, ptr %10, align 4, !tbaa !3
  %30 = load ptr, ptr %6, align 8, !tbaa !10
  %31 = getelementptr inbounds nuw %struct.SUNHashMap_, ptr %30, i32 0, i32 2
  %32 = load ptr, ptr %31, align 8, !tbaa !16
  %33 = load i32, ptr %10, align 4, !tbaa !3
  %34 = sext i32 %33 to i64
  %35 = getelementptr inbounds ptr, ptr %32, i64 %34
  %36 = load ptr, ptr %35, align 8, !tbaa !17
  %37 = load ptr, ptr %9, align 8, !tbaa !19
  %38 = call i32 %28(i32 noundef %29, ptr noundef %36, ptr noundef %37)
  store i32 %38, ptr %12, align 4, !tbaa !3
  %39 = load i32, ptr %12, align 4, !tbaa !3
  %40 = icmp sge i32 %39, 0
  br i1 %40, label %41, label %43

41:                                               ; preds = %27
  %42 = load i32, ptr %12, align 4, !tbaa !3
  store i32 %42, ptr %5, align 4
  store i32 1, ptr %11, align 4
  br label %49

43:                                               ; preds = %27
  %44 = load i32, ptr %12, align 4, !tbaa !3
  %45 = icmp slt i32 %44, -1
  br i1 %45, label %46, label %48

46:                                               ; preds = %43
  %47 = load i32, ptr %12, align 4, !tbaa !3
  store i32 %47, ptr %5, align 4
  store i32 1, ptr %11, align 4
  br label %49

48:                                               ; preds = %43
  store i32 0, ptr %11, align 4
  br label %49

49:                                               ; preds = %48, %46, %41
  call void @llvm.lifetime.end.p0(i64 4, ptr %12) #6
  %50 = load i32, ptr %11, align 4
  switch i32 %50, label %59 [
    i32 0, label %51
  ]

51:                                               ; preds = %49
  br label %52

52:                                               ; preds = %51
  %53 = load i32, ptr %10, align 4, !tbaa !3
  %54 = add nsw i32 %53, 1
  store i32 %54, ptr %10, align 4, !tbaa !3
  br label %21

55:                                               ; preds = %21
  %56 = load ptr, ptr %6, align 8, !tbaa !10
  %57 = getelementptr inbounds nuw %struct.SUNHashMap_, ptr %56, i32 0, i32 1
  %58 = load i32, ptr %57, align 4, !tbaa !15
  store i32 %58, ptr %5, align 4
  store i32 1, ptr %11, align 4
  br label %59

59:                                               ; preds = %55, %49, %18
  call void @llvm.lifetime.end.p0(i64 4, ptr %10) #6
  %60 = load i32, ptr %5, align 4
  ret i32 %60
}