; Function Attrs: nounwind uwtable
define i32 @SUNHashMap_Iterate(ptr noundef readonly captures(address_is_null) %0, i32 noundef %1, ptr noundef readonly captures(address_is_null) %2, ptr noundef %3) local_unnamed_addr #3 {
  %5 = icmp eq ptr %0, null
  %6 = icmp eq ptr %2, null
  %or.cond = or i1 %5, %6
  br i1 %or.cond, label %.thread, label %.preheader

.preheader:                                       ; preds = %4
  %7 = getelementptr inbounds nuw i8, ptr %0, i64 4
  %8 = load i32, ptr %7, align 4, !tbaa !12
  %9 = icmp slt i32 %1, %8
  br i1 %9, label %.lr.ph, label %.thread

.lr.ph:                                           ; preds = %.preheader
  %10 = getelementptr inbounds nuw i8, ptr %0, i64 8
  %11 = sext i32 %1 to i64
  br label %16

12:                                               ; preds = %16
  %indvars.iv.next = add nsw i64 %indvars.iv, 1
  %13 = load i32, ptr %7, align 4, !tbaa !12
  %14 = sext i32 %13 to i64
  %15 = icmp slt i64 %indvars.iv.next, %14
  br i1 %15, label %16, label %.thread

16:                                               ; preds = %.lr.ph, %12
  %indvars.iv = phi i64 [ %11, %.lr.ph ], [ %indvars.iv.next, %12 ]
  %17 = load ptr, ptr %10, align 8, !tbaa !13
  %18 = getelementptr inbounds ptr, ptr %17, i64 %indvars.iv
  %19 = load ptr, ptr %18, align 8, !tbaa !14
  %20 = trunc nsw i64 %indvars.iv to i32
  %21 = tail call i32 %2(i32 noundef %20, ptr noundef %19, ptr noundef %3) #10
  %.not = icmp eq i32 %21, -1
  br i1 %.not, label %12, label %.thread

.thread:                                          ; preds = %12, %16, %.preheader, %4
  %.0 = phi i32 [ -2, %4 ], [ %8, %.preheader ], [ %13, %12 ], [ %21, %16 ]
  ret i32 %.0
}